; Function Attrs: mustprogress uwtable
define hidden void @_ZN5arith6solver12set_evidenceEj(ptr noundef nonnull align 8 dereferenceable(1144) %this, i32 noundef %idx) local_unnamed_addr #3 align 2 {
entry:
  %cmp = icmp eq i32 %idx, -1
  br i1 %cmp, label %sw.epilog, label %if.end

if.end:                                           ; preds = %entry
  %m_constraint_sources = getelementptr inbounds i8, ptr %this, i64 312
  %0 = load ptr, ptr %m_constraint_sources, align 8
  %idxprom.i = zext i32 %idx to i64
  %arrayidx.i = getelementptr inbounds i32, ptr %0, i64 %idxprom.i
  %1 = load i32, ptr %arrayidx.i, align 4
  switch i32 %1, label %sw.default [
    i32 0, label %sw.bb
    i32 1, label %sw.bb4
    i32 2, label %sw.epilog
  ]

sw.bb:                                            ; preds = %if.end
  %m_inequalities = getelementptr inbounds i8, ptr %this, i64 320
  %2 = load ptr, ptr %m_inequalities, align 8
  %arrayidx.i5 = getelementptr inbounds %"class.sat::literal", ptr %2, i64 %idxprom.i
  %3 = load i32, ptr %arrayidx.i5, align 4
  %m_core = getelementptr inbounds i8, ptr %this, i64 848
  %4 = load ptr, ptr %m_core, align 8
  %cmp.i = icmp eq ptr %4, null
  br i1 %cmp.i, label %if.then.i, label %lor.lhs.false.i

lor.lhs.false.i:                                  ; preds = %sw.bb
  %arrayidx.i6 = getelementptr inbounds i8, ptr %4, i64 -4
  %5 = load i32, ptr %arrayidx.i6, align 4
  %arrayidx4.i = getelementptr inbounds i8, ptr %4, i64 -8
  %6 = load i32, ptr %arrayidx4.i, align 4
  %cmp5.i = icmp eq i32 %5, %6
  br i1 %cmp5.i, label %if.then.i, label %_ZN6vectorIN3sat7literalELb0EjE9push_backERKS1_.exit

if.then.i:                                        ; preds = %lor.lhs.false.i, %sw.bb
  tail call void @_ZN6vectorIN3sat7literalELb0EjE13expand_vectorEv(ptr noundef nonnull align 8 dereferenceable(8) %m_core)
  %.pre.i = load ptr, ptr %m_core, align 8
  %arrayidx8.phi.trans.insert.i = getelementptr inbounds i8, ptr %.pre.i, i64 -4
  %.pre1.i = load i32, ptr %arrayidx8.phi.trans.insert.i, align 4
  br label %_ZN6vectorIN3sat7literalELb0EjE9push_backERKS1_.exit

_ZN6vectorIN3sat7literalELb0EjE9push_backERKS1_.exit: ; preds = %lor.lhs.false.i, %if.then.i
  %7 = phi i32 [ %.pre1.i, %if.then.i ], [ %5, %lor.lhs.false.i ]
  %8 = phi ptr [ %.pre.i, %if.then.i ], [ %4, %lor.lhs.false.i ]
  %idx.ext.i = zext i32 %7 to i64
  %add.ptr.i = getelementptr inbounds %"class.sat::literal", ptr %8, i64 %idx.ext.i
  store i32 %3, ptr %add.ptr.i, align 4
  br label %sw.epilog.sink.split

sw.bb4:                                           ; preds = %if.end
  %m_eqs = getelementptr inbounds i8, ptr %this, i64 872
  %m_equalities = getelementptr inbounds i8, ptr %this, i64 328
  %9 = load ptr, ptr %m_equalities, align 8
  %arrayidx.i8 = getelementptr inbounds %"struct.std::pair", ptr %9, i64 %idxprom.i
  %10 = load ptr, ptr %m_eqs, align 8
  %cmp.i9 = icmp eq ptr %10, null
  br i1 %cmp.i9, label %if.then.i18, label %lor.lhs.false.i10

lor.lhs.false.i10:                                ; preds = %sw.bb4
  %arrayidx.i11 = getelementptr inbounds i8, ptr %10, i64 -4
  %11 = load i32, ptr %arrayidx.i11, align 4
  %arrayidx4.i12 = getelementptr inbounds i8, ptr %10, i64 -8
  %12 = load i32, ptr %arrayidx4.i12, align 4
  %cmp5.i13 = icmp eq i32 %11, %12
  br i1 %cmp5.i13, label %if.then.i18, label %_ZN6vectorISt4pairIPN3euf5enodeES3_ELb0EjE9push_backERKS4_.exit

if.then.i18:                                      ; preds = %lor.lhs.false.i10, %sw.bb4
  tail call void @_ZN6vectorISt4pairIPN3euf5enodeES3_ELb0EjE13expand_vectorEv(ptr noundef nonnull align 8 dereferenceable(8) %m_eqs)
  %.pre.i19 = load ptr, ptr %m_eqs, align 8
  %arrayidx8.phi.trans.insert.i20 = getelementptr inbounds i8, ptr %.pre.i19, i64 -4
  %.pre1.i21 = load i32, ptr %arrayidx8.phi.trans.insert.i20, align 4
  br label %_ZN6vectorISt4pairIPN3euf5enodeES3_ELb0EjE9push_backERKS4_.exit

_ZN6vectorISt4pairIPN3euf5enodeES3_ELb0EjE9push_backERKS4_.exit: ; preds = %lor.lhs.false.i10, %if.then.i18
  %13 = phi i32 [ %.pre1.i21, %if.then.i18 ], [ %11, %lor.lhs.false.i10 ]
  %14 = phi ptr [ %.pre.i19, %if.then.i18 ], [ %10, %lor.lhs.false.i10 ]
  %idx.ext.i14 = zext i32 %13 to i64
  %add.ptr.i15 = getelementptr inbounds %"struct.std::pair", ptr %14, i64 %idx.ext.i14
  tail call void @llvm.memcpy.p0.p0.i64(ptr noundef nonnull align 8 dereferenceable(16) %add.ptr.i15, ptr noundef nonnull align 8 dereferenceable(16) %arrayidx.i8, i64 16, i1 false)
  br label %sw.epilog.sink.split

sw.default:                                       ; preds = %if.end
  tail call void @_Z26notify_assertion_violationPKciS0_(ptr noundef nonnull @.str.6, i32 noundef 1297, ptr noundef nonnull @.str.7)
  tail call void @exit(i32 noundef 114) #24
  unreachable

sw.epilog.sink.split:                             ; preds = %_ZN6vectorIN3sat7literalELb0EjE9push_backERKS1_.exit, %_ZN6vectorISt4pairIPN3euf5enodeES3_ELb0EjE9push_backERKS4_.exit
  %m_core.sink = phi ptr [ %m_core, %_ZN6vectorIN3sat7literalELb0EjE9push_backERKS1_.exit ], [ %m_eqs, %_ZN6vectorISt4pairIPN3euf5enodeES3_ELb0EjE9push_backERKS4_.exit ]
  %15 = load ptr, ptr %m_core.sink, align 8
  %arrayidx10.i = getelementptr inbounds i8, ptr %15, i64 -4
  %16 = load i32, ptr %arrayidx10.i, align 4
  %inc.i17 = add i32 %16, 1
  store i32 %inc.i17, ptr %arrayidx10.i, align 4
  br label %sw.epilog

sw.epilog:                                        ; preds = %sw.epilog.sink.split, %if.end, %entry
  ret void
}